
temperatura_lm35.elf:     file format elf32-avr

Sections:
Idx Name          Size      VMA       LMA       File off  Algn
  0 .data         00000014  00800100  00000558  000005ec  2**0
                  CONTENTS, ALLOC, LOAD, DATA
  1 .text         00000558  00000000  00000000  00000094  2**1
                  CONTENTS, ALLOC, LOAD, READONLY, CODE
  2 .bss          00000006  00800114  00800114  00000600  2**0
                  ALLOC
  3 .stab         000019a4  00000000  00000000  00000600  2**2
                  CONTENTS, READONLY, DEBUGGING
  4 .stabstr      000005ea  00000000  00000000  00001fa4  2**0
                  CONTENTS, READONLY, DEBUGGING
  5 .debug_aranges 000000c0  00000000  00000000  00002590  2**3
                  CONTENTS, READONLY, DEBUGGING
  6 .debug_info   00000aa3  00000000  00000000  00002650  2**0
                  CONTENTS, READONLY, DEBUGGING
  7 .debug_abbrev 000002fc  00000000  00000000  000030f3  2**0
                  CONTENTS, READONLY, DEBUGGING
  8 .debug_line   0000062f  00000000  00000000  000033ef  2**0
                  CONTENTS, READONLY, DEBUGGING
  9 .debug_frame  000000e0  00000000  00000000  00003a20  2**2
                  CONTENTS, READONLY, DEBUGGING
 10 .debug_str    000001af  00000000  00000000  00003b00  2**0
                  CONTENTS, READONLY, DEBUGGING
 11 .debug_loc    00000152  00000000  00000000  00003caf  2**0
                  CONTENTS, READONLY, DEBUGGING

Disassembly of section .text:

00000000 <__vectors>:
   0:	19 c0       	rjmp	.+50     	; 0x34 <__ctors_end>
   2:	33 c0       	rjmp	.+102    	; 0x6a <__bad_interrupt>
   4:	32 c0       	rjmp	.+100    	; 0x6a <__bad_interrupt>
   6:	31 c0       	rjmp	.+98     	; 0x6a <__bad_interrupt>
   8:	30 c0       	rjmp	.+96     	; 0x6a <__bad_interrupt>
   a:	2f c0       	rjmp	.+94     	; 0x6a <__bad_interrupt>
   c:	2e c0       	rjmp	.+92     	; 0x6a <__bad_interrupt>
   e:	2d c0       	rjmp	.+90     	; 0x6a <__bad_interrupt>
  10:	2c c0       	rjmp	.+88     	; 0x6a <__bad_interrupt>
  12:	2b c0       	rjmp	.+86     	; 0x6a <__bad_interrupt>
  14:	2a c0       	rjmp	.+84     	; 0x6a <__bad_interrupt>
  16:	29 c0       	rjmp	.+82     	; 0x6a <__bad_interrupt>
  18:	28 c0       	rjmp	.+80     	; 0x6a <__bad_interrupt>
  1a:	27 c0       	rjmp	.+78     	; 0x6a <__bad_interrupt>
  1c:	26 c0       	rjmp	.+76     	; 0x6a <__bad_interrupt>
  1e:	25 c0       	rjmp	.+74     	; 0x6a <__bad_interrupt>
  20:	24 c0       	rjmp	.+72     	; 0x6a <__bad_interrupt>
  22:	23 c0       	rjmp	.+70     	; 0x6a <__bad_interrupt>
  24:	22 c0       	rjmp	.+68     	; 0x6a <__bad_interrupt>
  26:	21 c0       	rjmp	.+66     	; 0x6a <__bad_interrupt>
  28:	20 c0       	rjmp	.+64     	; 0x6a <__bad_interrupt>
  2a:	1f c0       	rjmp	.+62     	; 0x6a <__bad_interrupt>
  2c:	1e c0       	rjmp	.+60     	; 0x6a <__bad_interrupt>
  2e:	1d c0       	rjmp	.+58     	; 0x6a <__bad_interrupt>
  30:	1c c0       	rjmp	.+56     	; 0x6a <__bad_interrupt>
  32:	1b c0       	rjmp	.+54     	; 0x6a <__bad_interrupt>

00000034 <__ctors_end>:
  34:	11 24       	eor	r1, r1
  36:	1f be       	out	0x3f, r1	; 63
  38:	cf ef       	ldi	r28, 0xFF	; 255
  3a:	d2 e0       	ldi	r29, 0x02	; 2
  3c:	de bf       	out	0x3e, r29	; 62
  3e:	cd bf       	out	0x3d, r28	; 61

00000040 <__do_copy_data>:
  40:	11 e0       	ldi	r17, 0x01	; 1
  42:	a0 e0       	ldi	r26, 0x00	; 0
  44:	b1 e0       	ldi	r27, 0x01	; 1
  46:	e8 e5       	ldi	r30, 0x58	; 88
  48:	f5 e0       	ldi	r31, 0x05	; 5
  4a:	02 c0       	rjmp	.+4      	; 0x50 <__do_copy_data+0x10>
  4c:	05 90       	lpm	r0, Z+
  4e:	0d 92       	st	X+, r0
  50:	a4 31       	cpi	r26, 0x14	; 20
  52:	b1 07       	cpc	r27, r17
  54:	d9 f7       	brne	.-10     	; 0x4c <__do_copy_data+0xc>

00000056 <__do_clear_bss>:
  56:	11 e0       	ldi	r17, 0x01	; 1
  58:	a4 e1       	ldi	r26, 0x14	; 20
  5a:	b1 e0       	ldi	r27, 0x01	; 1
  5c:	01 c0       	rjmp	.+2      	; 0x60 <.do_clear_bss_start>

0000005e <.do_clear_bss_loop>:
  5e:	1d 92       	st	X+, r1

00000060 <.do_clear_bss_start>:
  60:	aa 31       	cpi	r26, 0x1A	; 26
  62:	b1 07       	cpc	r27, r17
  64:	e1 f7       	brne	.-8      	; 0x5e <.do_clear_bss_loop>
  66:	bc d0       	rcall	.+376    	; 0x1e0 <main>
  68:	75 c2       	rjmp	.+1258   	; 0x554 <_exit>

0000006a <__bad_interrupt>:
  6a:	ca cf       	rjmp	.-108    	; 0x0 <__vectors>

0000006c <lcd_nibble>:
	delay_ms(5);
}

void lcd_nibble(unsigned char nibble)
{
	LCD_RW_LOW;            
  6c:	5a 98       	cbi	0x0b, 2	; 11
	
		if (SALIDA==0)
			LCD_PORT_DIR&=0X0F;
		else
			LCD_PORT_DIR|=0XF0;
  6e:	9a b1       	in	r25, 0x0a	; 10
  70:	90 6f       	ori	r25, 0xF0	; 240
  72:	9a b9       	out	0x0a, r25	; 10
		LCD_PORT_WRITE=(nibble&0xF0)|(LCD_PORT_WRITE&0x0F);
  74:	9b b1       	in	r25, 0x0b	; 11
  76:	80 7f       	andi	r24, 0xF0	; 240
  78:	9f 70       	andi	r25, 0x0F	; 15
  7a:	98 2b       	or	r25, r24
  7c:	9b b9       	out	0x0b, r25	; 11
	#else
		//round up by default
		__ticks_dc = (uint32_t)(ceil(fabs(__tmp)));
	#endif

	__builtin_avr_delay_cycles(__ticks_dc);
  7e:	00 c0       	rjmp	.+0      	; 0x80 <lcd_nibble+0x14>
		
	delay_us(2);
	LCD_E_HIGH;
  80:	5b 9a       	sbi	0x0b, 3	; 11
  82:	00 c0       	rjmp	.+0      	; 0x84 <lcd_nibble+0x18>
	delay_us(2);
	LCD_E_LOW;	
  84:	5b 98       	cbi	0x0b, 3	; 11
}
  86:	08 95       	ret

00000088 <lcd_read>:
}

char lcd_read(char rs)
{
	char alto,bajo;   
  	if (rs==0)
  88:	88 23       	and	r24, r24
  8a:	11 f4       	brne	.+4      	; 0x90 <lcd_read+0x8>
   		LCD_RS_LOW;
  8c:	59 98       	cbi	0x0b, 1	; 11
  8e:	01 c0       	rjmp	.+2      	; 0x92 <lcd_read+0xa>
	else
		LCD_RS_HIGH;
  90:	59 9a       	sbi	0x0b, 1	; 11
    LCD_RW_HIGH;
  92:	5a 9a       	sbi	0x0b, 2	; 11
	
		if (ENTRADA==0)
			LCD_PORT_DIR&=0X0F;
  94:	8a b1       	in	r24, 0x0a	; 10
  96:	8f 70       	andi	r24, 0x0F	; 15
  98:	8a b9       	out	0x0a, r24	; 10
  9a:	00 c0       	rjmp	.+0      	; 0x9c <lcd_read+0x14>
		else
			LCD_PORT_DIR|=0XF0;			
		delay_us(2); 
	   	LCD_E_HIGH;  
  9c:	5b 9a       	sbi	0x0b, 3	; 11
  9e:	00 c0       	rjmp	.+0      	; 0xa0 <lcd_read+0x18>
	   	delay_us(2); 
	   	alto=LCD_PORT_READ;
  a0:	89 b1       	in	r24, 0x09	; 9
	   	LCD_E_LOW;
  a2:	5b 98       	cbi	0x0b, 3	; 11
  a4:	00 c0       	rjmp	.+0      	; 0xa6 <lcd_read+0x1e>
	   	delay_us(2);
	   	LCD_E_HIGH;
  a6:	5b 9a       	sbi	0x0b, 3	; 11
  a8:	00 c0       	rjmp	.+0      	; 0xaa <lcd_read+0x22>
	   	delay_us(2);
	   	bajo = LCD_PORT_READ;
  aa:	99 b1       	in	r25, 0x09	; 9
	   	LCD_E_LOW;
  ac:	5b 98       	cbi	0x0b, 3	; 11
		LCD_RW_LOW;
  ae:	5a 98       	cbi	0x0b, 2	; 11
	   	return (alto&0xF0)|(bajo>>4);
  b0:	92 95       	swap	r25
  b2:	9f 70       	andi	r25, 0x0F	; 15
  b4:	80 7f       	andi	r24, 0xF0	; 240
	  	   	
}
  b6:	89 2b       	or	r24, r25
  b8:	08 95       	ret

000000ba <lcd_write>:
	delay_us(2);
	LCD_E_LOW;	
}

void lcd_write(char inst, char rs)
{
  ba:	cf 93       	push	r28
  bc:	df 93       	push	r29
  be:	c8 2f       	mov	r28, r24
  c0:	d6 2f       	mov	r29, r22
	while((lcd_read(0)==0x80));
  c2:	80 e0       	ldi	r24, 0x00	; 0
  c4:	e1 df       	rcall	.-62     	; 0x88 <lcd_read>
  c6:	80 38       	cpi	r24, 0x80	; 128
  c8:	e1 f3       	breq	.-8      	; 0xc2 <lcd_write+0x8>
	if (rs==0)
  ca:	dd 23       	and	r29, r29
  cc:	11 f4       	brne	.+4      	; 0xd2 <lcd_write+0x18>
   		LCD_RS_LOW;
  ce:	59 98       	cbi	0x0b, 1	; 11
  d0:	01 c0       	rjmp	.+2      	; 0xd4 <lcd_write+0x1a>
	else
		LCD_RS_HIGH;
  d2:	59 9a       	sbi	0x0b, 1	; 11
  d4:	8d e0       	ldi	r24, 0x0D	; 13
  d6:	8a 95       	dec	r24
  d8:	f1 f7       	brne	.-4      	; 0xd6 <lcd_write+0x1c>
  da:	00 00       	nop
   	delay_us(40);
   	lcd_nibble(inst);
  dc:	8c 2f       	mov	r24, r28
  de:	c6 df       	rcall	.-116    	; 0x6c <lcd_nibble>
	
   		lcd_nibble(inst<<4);
  e0:	8c 2f       	mov	r24, r28
  e2:	82 95       	swap	r24
  e4:	80 7f       	andi	r24, 0xF0	; 240
  e6:	c2 df       	rcall	.-124    	; 0x6c <lcd_nibble>

}
  e8:	df 91       	pop	r29
  ea:	cf 91       	pop	r28
  ec:	08 95       	ret

000000ee <lcd_init>:
#include "lcd.h"

//Inicializa LCD
void lcd_init(void)
{
	LCD_E_DIR_OUT;
  ee:	53 9a       	sbi	0x0a, 3	; 10
	LCD_RS_DIR_OUT;
  f0:	51 9a       	sbi	0x0a, 1	; 10
	LCD_RW_DIR_OUT;	
  f2:	52 9a       	sbi	0x0a, 2	; 10
	
	LCD_E_LOW;
  f4:	5b 98       	cbi	0x0b, 3	; 11
	LCD_RS_LOW;
  f6:	59 98       	cbi	0x0b, 1	; 11
	LCD_RW_LOW;	
  f8:	5a 98       	cbi	0x0b, 2	; 11

		if (SALIDA==0)
			LCD_PORT_DIR&=0X0F;
		else
			LCD_PORT_DIR|=0XF0;
  fa:	8a b1       	in	r24, 0x0a	; 10
  fc:	80 6f       	ori	r24, 0xF0	; 240
  fe:	8a b9       	out	0x0a, r24	; 10
	#else
		//round up by default
		__ticks_dc = (uint32_t)(ceil(fabs(__tmp)));
	#endif

	__builtin_avr_delay_cycles(__ticks_dc);
 100:	81 ef       	ldi	r24, 0xF1	; 241
 102:	9b e2       	ldi	r25, 0x2B	; 43
 104:	01 97       	sbiw	r24, 0x01	; 1
 106:	f1 f7       	brne	.-4      	; 0x104 <lcd_init+0x16>
 108:	00 c0       	rjmp	.+0      	; 0x10a <lcd_init+0x1c>
 10a:	00 00       	nop
	
	delay_ms(45);
	lcd_nibble(LCD_RESET);
 10c:	80 e3       	ldi	r24, 0x30	; 48
 10e:	ae df       	rcall	.-164    	; 0x6c <lcd_nibble>
 110:	81 ee       	ldi	r24, 0xE1	; 225
 112:	94 e0       	ldi	r25, 0x04	; 4
 114:	01 97       	sbiw	r24, 0x01	; 1
 116:	f1 f7       	brne	.-4      	; 0x114 <lcd_init+0x26>
 118:	00 c0       	rjmp	.+0      	; 0x11a <lcd_init+0x2c>
 11a:	00 00       	nop
   	delay_ms(5);         
   	lcd_nibble(LCD_RESET); 
 11c:	80 e3       	ldi	r24, 0x30	; 48
 11e:	a6 df       	rcall	.-180    	; 0x6c <lcd_nibble>
 120:	89 ef       	ldi	r24, 0xF9	; 249
 122:	90 e0       	ldi	r25, 0x00	; 0
 124:	01 97       	sbiw	r24, 0x01	; 1
 126:	f1 f7       	brne	.-4      	; 0x124 <lcd_init+0x36>
 128:	00 c0       	rjmp	.+0      	; 0x12a <lcd_init+0x3c>
 12a:	00 00       	nop
   	delay_ms(1);         
   	lcd_nibble(LCD_RESET); 
 12c:	80 e3       	ldi	r24, 0x30	; 48
 12e:	9e df       	rcall	.-196    	; 0x6c <lcd_nibble>
 130:	89 ef       	ldi	r24, 0xF9	; 249
 132:	90 e0       	ldi	r25, 0x00	; 0
 134:	01 97       	sbiw	r24, 0x01	; 1
 136:	f1 f7       	brne	.-4      	; 0x134 <lcd_init+0x46>
 138:	00 c0       	rjmp	.+0      	; 0x13a <lcd_init+0x4c>
 13a:	00 00       	nop
	delay_ms(1);         
		
		lcd_nibble(LCD_4BITS); 
 13c:	80 e2       	ldi	r24, 0x20	; 32
 13e:	96 df       	rcall	.-212    	; 0x6c <lcd_nibble>
 140:	89 ef       	ldi	r24, 0xF9	; 249
 142:	90 e0       	ldi	r25, 0x00	; 0
 144:	01 97       	sbiw	r24, 0x01	; 1
 146:	f1 f7       	brne	.-4      	; 0x144 <lcd_init+0x56>
 148:	00 c0       	rjmp	.+0      	; 0x14a <lcd_init+0x5c>
 14a:	00 00       	nop
   		delay_ms(1);         
   		lcd_nibble(LCD_4BITS); 
 14c:	80 e2       	ldi	r24, 0x20	; 32
 14e:	8e df       	rcall	.-228    	; 0x6c <lcd_nibble>
   		lcd_nibble(LCD_SET_4BITS); 
 150:	80 ec       	ldi	r24, 0xC0	; 192
 152:	8c df       	rcall	.-232    	; 0x6c <lcd_nibble>
	   	
   	lcd_write(LCD_OFF_ON, 0);
 154:	8c e0       	ldi	r24, 0x0C	; 12
 156:	60 e0       	ldi	r22, 0x00	; 0
 158:	b0 df       	rcall	.-160    	; 0xba <lcd_write>
   	lcd_write(LCD_CLEAR, 0);
 15a:	81 e0       	ldi	r24, 0x01	; 1
 15c:	60 e0       	ldi	r22, 0x00	; 0
 15e:	ad df       	rcall	.-166    	; 0xba <lcd_write>
   	lcd_write(LCD_ENTRY_MODE, 0);
 160:	86 e0       	ldi	r24, 0x06	; 6
 162:	60 e0       	ldi	r22, 0x00	; 0
 164:	aa df       	rcall	.-172    	; 0xba <lcd_write>
 166:	81 ee       	ldi	r24, 0xE1	; 225
 168:	94 e0       	ldi	r25, 0x04	; 4
 16a:	01 97       	sbiw	r24, 0x01	; 1
 16c:	f1 f7       	brne	.-4      	; 0x16a <lcd_init+0x7c>
 16e:	00 c0       	rjmp	.+0      	; 0x170 <lcd_init+0x82>
 170:	00 00       	nop
	delay_ms(5);
}
 172:	08 95       	ret

00000174 <lcd_puts>:
	   	return (alto&0xF0)|(bajo>>4);
	  	   	
}

void lcd_puts(const char * s)
{
 174:	cf 93       	push	r28
 176:	df 93       	push	r29
 178:	ec 01       	movw	r28, r24
	while(*s!=0)	
 17a:	88 81       	ld	r24, Y
 17c:	88 23       	and	r24, r24
 17e:	31 f0       	breq	.+12     	; 0x18c <lcd_puts+0x18>
		LCD_RW_LOW;
	   	return (alto&0xF0)|(bajo>>4);
	  	   	
}

void lcd_puts(const char * s)
 180:	21 96       	adiw	r28, 0x01	; 1
{
	while(*s!=0)	
		lcd_write(*s++, 1);	
 182:	61 e0       	ldi	r22, 0x01	; 1
 184:	9a df       	rcall	.-204    	; 0xba <lcd_write>
	  	   	
}

void lcd_puts(const char * s)
{
	while(*s!=0)	
 186:	89 91       	ld	r24, Y+
 188:	88 23       	and	r24, r24
 18a:	d9 f7       	brne	.-10     	; 0x182 <lcd_puts+0xe>
		lcd_write(*s++, 1);	
}
 18c:	df 91       	pop	r29
 18e:	cf 91       	pop	r28
 190:	08 95       	ret

00000192 <lcd_gotoxy>:

void lcd_gotoxy(char x, char y)
{
	if(y==0)
 192:	66 23       	and	r22, r22
 194:	11 f4       	brne	.+4      	; 0x19a <lcd_gotoxy+0x8>
   		y = LCD_LINE1;
 196:	90 e8       	ldi	r25, 0x80	; 128
 198:	01 c0       	rjmp	.+2      	; 0x19c <lcd_gotoxy+0xa>
   	else
 	   	y = LCD_LINE2;
 19a:	90 ec       	ldi	r25, 0xC0	; 192
   	lcd_write(x+y, 0); 
 19c:	89 0f       	add	r24, r25
 19e:	60 e0       	ldi	r22, 0x00	; 0
 1a0:	8c df       	rcall	.-232    	; 0xba <lcd_write>
}
 1a2:	08 95       	ret

000001a4 <lcd_clear>:

void lcd_clear(void)
{
   lcd_write(LCD_CLEAR, 0);
 1a4:	81 e0       	ldi	r24, 0x01	; 1
 1a6:	60 e0       	ldi	r22, 0x00	; 0
 1a8:	88 df       	rcall	.-240    	; 0xba <lcd_write>
}
 1aa:	08 95       	ret

000001ac <ADC_init>:
    }
}

void ADC_init()
{
	ADMUX=0x40;
 1ac:	80 e4       	ldi	r24, 0x40	; 64
 1ae:	80 93 7c 00 	sts	0x007C, r24
	ADCSRA=0x80;
 1b2:	80 e8       	ldi	r24, 0x80	; 128
 1b4:	80 93 7a 00 	sts	0x007A, r24
}
 1b8:	08 95       	ret

000001ba <READ_ADC>:
int READ_ADC(char canal)
{
	ADMUX=(ADMUX&0xf0)|canal; //selección canal
 1ba:	ec e7       	ldi	r30, 0x7C	; 124
 1bc:	f0 e0       	ldi	r31, 0x00	; 0
 1be:	90 81       	ld	r25, Z
 1c0:	90 7f       	andi	r25, 0xF0	; 240
 1c2:	89 2b       	or	r24, r25
 1c4:	80 83       	st	Z, r24
	ADCSRA=ADCSRA|(1<<ADSC);// inicia conv
 1c6:	ea e7       	ldi	r30, 0x7A	; 122
 1c8:	f0 e0       	ldi	r31, 0x00	; 0
 1ca:	80 81       	ld	r24, Z
 1cc:	80 64       	ori	r24, 0x40	; 64
 1ce:	80 83       	st	Z, r24
	while((ADCSRA&(1<<4))==0);//espera a que se complete conv.
 1d0:	80 81       	ld	r24, Z
 1d2:	84 ff       	sbrs	r24, 4
 1d4:	fd cf       	rjmp	.-6      	; 0x1d0 <READ_ADC+0x16>
	return ADCW; // devuelve el res. de conv.
 1d6:	80 91 78 00 	lds	r24, 0x0078
 1da:	90 91 79 00 	lds	r25, 0x0079
 1de:	08 95       	ret

000001e0 <main>:
int READ_ADC(char canal);
int num; 
char arreglo[4];

int main(void)
{	DDRB=0x03;
 1e0:	83 e0       	ldi	r24, 0x03	; 3
 1e2:	84 b9       	out	0x04, r24	; 4
	ADC_init();
 1e4:	e3 df       	rcall	.-58     	; 0x1ac <ADC_init>
	lcd_init();
 1e6:	83 df       	rcall	.-250    	; 0xee <lcd_init>
	lcd_gotoxy(3,0);
 1e8:	83 e0       	ldi	r24, 0x03	; 3
 1ea:	60 e0       	ldi	r22, 0x00	; 0
 1ec:	d2 df       	rcall	.-92     	; 0x192 <lcd_gotoxy>
	lcd_puts("TEMPERATURA");
 1ee:	80 e0       	ldi	r24, 0x00	; 0
 1f0:	91 e0       	ldi	r25, 0x01	; 1
 1f2:	c0 df       	rcall	.-128    	; 0x174 <lcd_puts>
    while(1)
    {
        num = READ_ADC(5);
		num= num/2.049; //guarda los grados
		
		itoa(num,arreglo,10);
 1f4:	06 e1       	ldi	r16, 0x16	; 22
 1f6:	11 e0       	ldi	r17, 0x01	; 1
		
		if(num>25)
			PORTB=0x02;
		else	if(num<21)
					PORTB=0x01;
 1f8:	c1 e0       	ldi	r28, 0x01	; 1
		num= num/2.049; //guarda los grados
		
		itoa(num,arreglo,10);
		
		if(num>25)
			PORTB=0x02;
 1fa:	d2 e0       	ldi	r29, 0x02	; 2
					PORTB=0x01;
					else
						PORTB=0x00;
		
		lcd_gotoxy(5,1);
		lcd_puts("       ");
 1fc:	0f 2e       	mov	r0, r31
 1fe:	fc e0       	ldi	r31, 0x0C	; 12
 200:	ef 2e       	mov	r14, r31
 202:	f1 e0       	ldi	r31, 0x01	; 1
 204:	ff 2e       	mov	r15, r31
 206:	f0 2d       	mov	r31, r0
	lcd_init();
	lcd_gotoxy(3,0);
	lcd_puts("TEMPERATURA");
    while(1)
    {
        num = READ_ADC(5);
 208:	85 e0       	ldi	r24, 0x05	; 5
 20a:	d7 df       	rcall	.-82     	; 0x1ba <READ_ADC>
		num= num/2.049; //guarda los grados
 20c:	9c 01       	movw	r18, r24
 20e:	b9 01       	movw	r22, r18
 210:	88 27       	eor	r24, r24
 212:	77 fd       	sbrc	r23, 7
 214:	80 95       	com	r24
 216:	98 2f       	mov	r25, r24
 218:	ce d0       	rcall	.+412    	; 0x3b6 <__floatsisf>
 21a:	21 ed       	ldi	r18, 0xD1	; 209
 21c:	32 e2       	ldi	r19, 0x22	; 34
 21e:	43 e0       	ldi	r20, 0x03	; 3
 220:	50 e4       	ldi	r21, 0x40	; 64
 222:	2e d0       	rcall	.+92     	; 0x280 <__divsf3>
 224:	95 d0       	rcall	.+298    	; 0x350 <__fixsfsi>
 226:	dc 01       	movw	r26, r24
 228:	cb 01       	movw	r24, r22
 22a:	90 93 15 01 	sts	0x0115, r25
 22e:	80 93 14 01 	sts	0x0114, r24
		
		itoa(num,arreglo,10);
 232:	b8 01       	movw	r22, r16
 234:	4a e0       	ldi	r20, 0x0A	; 10
 236:	50 e0       	ldi	r21, 0x00	; 0
 238:	4a d1       	rcall	.+660    	; 0x4ce <itoa>
		
		if(num>25)
 23a:	80 91 14 01 	lds	r24, 0x0114
 23e:	90 91 15 01 	lds	r25, 0x0115
 242:	8a 31       	cpi	r24, 0x1A	; 26
 244:	91 05       	cpc	r25, r1
 246:	14 f0       	brlt	.+4      	; 0x24c <main+0x6c>
			PORTB=0x02;
 248:	d5 b9       	out	0x05, r29	; 5
 24a:	06 c0       	rjmp	.+12     	; 0x258 <main+0x78>
		else	if(num<21)
 24c:	85 31       	cpi	r24, 0x15	; 21
 24e:	91 05       	cpc	r25, r1
 250:	14 f4       	brge	.+4      	; 0x256 <main+0x76>
					PORTB=0x01;
 252:	c5 b9       	out	0x05, r28	; 5
 254:	01 c0       	rjmp	.+2      	; 0x258 <main+0x78>
					else
						PORTB=0x00;
 256:	15 b8       	out	0x05, r1	; 5
		
		lcd_gotoxy(5,1);
 258:	85 e0       	ldi	r24, 0x05	; 5
 25a:	6c 2f       	mov	r22, r28
 25c:	9a df       	rcall	.-204    	; 0x192 <lcd_gotoxy>
		lcd_puts("       ");
 25e:	c7 01       	movw	r24, r14
 260:	89 df       	rcall	.-238    	; 0x174 <lcd_puts>
		lcd_gotoxy(5,1);
 262:	85 e0       	ldi	r24, 0x05	; 5
 264:	6c 2f       	mov	r22, r28
 266:	95 df       	rcall	.-214    	; 0x192 <lcd_gotoxy>
		lcd_puts(arreglo);
 268:	c8 01       	movw	r24, r16
 26a:	84 df       	rcall	.-248    	; 0x174 <lcd_puts>
 26c:	8f e7       	ldi	r24, 0x7F	; 127
 26e:	98 e3       	ldi	r25, 0x38	; 56
 270:	a1 e0       	ldi	r26, 0x01	; 1
 272:	81 50       	subi	r24, 0x01	; 1
 274:	90 40       	sbci	r25, 0x00	; 0
 276:	a0 40       	sbci	r26, 0x00	; 0
 278:	e1 f7       	brne	.-8      	; 0x272 <main+0x92>
 27a:	00 c0       	rjmp	.+0      	; 0x27c <main+0x9c>
 27c:	00 00       	nop
 27e:	c4 cf       	rjmp	.-120    	; 0x208 <main+0x28>

00000280 <__divsf3>:
 280:	0c d0       	rcall	.+24     	; 0x29a <__divsf3x>
 282:	eb c0       	rjmp	.+470    	; 0x45a <__fp_round>
 284:	e3 d0       	rcall	.+454    	; 0x44c <__fp_pscB>
 286:	40 f0       	brcs	.+16     	; 0x298 <__divsf3+0x18>
 288:	da d0       	rcall	.+436    	; 0x43e <__fp_pscA>
 28a:	30 f0       	brcs	.+12     	; 0x298 <__divsf3+0x18>
 28c:	21 f4       	brne	.+8      	; 0x296 <__divsf3+0x16>
 28e:	5f 3f       	cpi	r21, 0xFF	; 255
 290:	19 f0       	breq	.+6      	; 0x298 <__divsf3+0x18>
 292:	cc c0       	rjmp	.+408    	; 0x42c <__fp_inf>
 294:	51 11       	cpse	r21, r1
 296:	15 c1       	rjmp	.+554    	; 0x4c2 <__fp_szero>
 298:	cf c0       	rjmp	.+414    	; 0x438 <__fp_nan>

0000029a <__divsf3x>:
 29a:	f0 d0       	rcall	.+480    	; 0x47c <__fp_split3>
 29c:	98 f3       	brcs	.-26     	; 0x284 <__divsf3+0x4>

0000029e <__divsf3_pse>:
 29e:	99 23       	and	r25, r25
 2a0:	c9 f3       	breq	.-14     	; 0x294 <__divsf3+0x14>
 2a2:	55 23       	and	r21, r21
 2a4:	b1 f3       	breq	.-20     	; 0x292 <__divsf3+0x12>
 2a6:	95 1b       	sub	r25, r21
 2a8:	55 0b       	sbc	r21, r21
 2aa:	bb 27       	eor	r27, r27
 2ac:	aa 27       	eor	r26, r26
 2ae:	62 17       	cp	r22, r18
 2b0:	73 07       	cpc	r23, r19
 2b2:	84 07       	cpc	r24, r20
 2b4:	38 f0       	brcs	.+14     	; 0x2c4 <__divsf3_pse+0x26>
 2b6:	9f 5f       	subi	r25, 0xFF	; 255
 2b8:	5f 4f       	sbci	r21, 0xFF	; 255
 2ba:	22 0f       	add	r18, r18
 2bc:	33 1f       	adc	r19, r19
 2be:	44 1f       	adc	r20, r20
 2c0:	aa 1f       	adc	r26, r26
 2c2:	a9 f3       	breq	.-22     	; 0x2ae <__divsf3_pse+0x10>
 2c4:	33 d0       	rcall	.+102    	; 0x32c <__stack+0x2d>
 2c6:	0e 2e       	mov	r0, r30
 2c8:	3a f0       	brmi	.+14     	; 0x2d8 <__divsf3_pse+0x3a>
 2ca:	e0 e8       	ldi	r30, 0x80	; 128
 2cc:	30 d0       	rcall	.+96     	; 0x32e <__stack+0x2f>
 2ce:	91 50       	subi	r25, 0x01	; 1
 2d0:	50 40       	sbci	r21, 0x00	; 0
 2d2:	e6 95       	lsr	r30
 2d4:	00 1c       	adc	r0, r0
 2d6:	ca f7       	brpl	.-14     	; 0x2ca <__divsf3_pse+0x2c>
 2d8:	29 d0       	rcall	.+82     	; 0x32c <__stack+0x2d>
 2da:	fe 2f       	mov	r31, r30
 2dc:	27 d0       	rcall	.+78     	; 0x32c <__stack+0x2d>
 2de:	66 0f       	add	r22, r22
 2e0:	77 1f       	adc	r23, r23
 2e2:	88 1f       	adc	r24, r24
 2e4:	bb 1f       	adc	r27, r27
 2e6:	26 17       	cp	r18, r22
 2e8:	37 07       	cpc	r19, r23
 2ea:	48 07       	cpc	r20, r24
 2ec:	ab 07       	cpc	r26, r27
 2ee:	b0 e8       	ldi	r27, 0x80	; 128
 2f0:	09 f0       	breq	.+2      	; 0x2f4 <__divsf3_pse+0x56>
 2f2:	bb 0b       	sbc	r27, r27
 2f4:	80 2d       	mov	r24, r0
 2f6:	bf 01       	movw	r22, r30
 2f8:	ff 27       	eor	r31, r31
 2fa:	93 58       	subi	r25, 0x83	; 131
 2fc:	5f 4f       	sbci	r21, 0xFF	; 255
 2fe:	2a f0       	brmi	.+10     	; 0x30a <__stack+0xb>
 300:	9e 3f       	cpi	r25, 0xFE	; 254
 302:	51 05       	cpc	r21, r1
 304:	68 f0       	brcs	.+26     	; 0x320 <__stack+0x21>
 306:	92 c0       	rjmp	.+292    	; 0x42c <__fp_inf>
 308:	dc c0       	rjmp	.+440    	; 0x4c2 <__fp_szero>
 30a:	5f 3f       	cpi	r21, 0xFF	; 255
 30c:	ec f3       	brlt	.-6      	; 0x308 <__stack+0x9>
 30e:	98 3e       	cpi	r25, 0xE8	; 232
 310:	dc f3       	brlt	.-10     	; 0x308 <__stack+0x9>
 312:	86 95       	lsr	r24
 314:	77 95       	ror	r23
 316:	67 95       	ror	r22
 318:	b7 95       	ror	r27
 31a:	f7 95       	ror	r31
 31c:	9f 5f       	subi	r25, 0xFF	; 255
 31e:	c9 f7       	brne	.-14     	; 0x312 <__stack+0x13>
 320:	88 0f       	add	r24, r24
 322:	91 1d       	adc	r25, r1
 324:	96 95       	lsr	r25
 326:	87 95       	ror	r24
 328:	97 f9       	bld	r25, 7
 32a:	08 95       	ret
 32c:	e1 e0       	ldi	r30, 0x01	; 1
 32e:	66 0f       	add	r22, r22
 330:	77 1f       	adc	r23, r23
 332:	88 1f       	adc	r24, r24
 334:	bb 1f       	adc	r27, r27
 336:	62 17       	cp	r22, r18
 338:	73 07       	cpc	r23, r19
 33a:	84 07       	cpc	r24, r20
 33c:	ba 07       	cpc	r27, r26
 33e:	20 f0       	brcs	.+8      	; 0x348 <__stack+0x49>
 340:	62 1b       	sub	r22, r18
 342:	73 0b       	sbc	r23, r19
 344:	84 0b       	sbc	r24, r20
 346:	ba 0b       	sbc	r27, r26
 348:	ee 1f       	adc	r30, r30
 34a:	88 f7       	brcc	.-30     	; 0x32e <__stack+0x2f>
 34c:	e0 95       	com	r30
 34e:	08 95       	ret

00000350 <__fixsfsi>:
 350:	04 d0       	rcall	.+8      	; 0x35a <__fixunssfsi>
 352:	68 94       	set
 354:	b1 11       	cpse	r27, r1
 356:	b5 c0       	rjmp	.+362    	; 0x4c2 <__fp_szero>
 358:	08 95       	ret

0000035a <__fixunssfsi>:
 35a:	98 d0       	rcall	.+304    	; 0x48c <__fp_splitA>
 35c:	88 f0       	brcs	.+34     	; 0x380 <__fixunssfsi+0x26>
 35e:	9f 57       	subi	r25, 0x7F	; 127
 360:	90 f0       	brcs	.+36     	; 0x386 <__fixunssfsi+0x2c>
 362:	b9 2f       	mov	r27, r25
 364:	99 27       	eor	r25, r25
 366:	b7 51       	subi	r27, 0x17	; 23
 368:	a0 f0       	brcs	.+40     	; 0x392 <__fixunssfsi+0x38>
 36a:	d1 f0       	breq	.+52     	; 0x3a0 <__fixunssfsi+0x46>
 36c:	66 0f       	add	r22, r22
 36e:	77 1f       	adc	r23, r23
 370:	88 1f       	adc	r24, r24
 372:	99 1f       	adc	r25, r25
 374:	1a f0       	brmi	.+6      	; 0x37c <__fixunssfsi+0x22>
 376:	ba 95       	dec	r27
 378:	c9 f7       	brne	.-14     	; 0x36c <__fixunssfsi+0x12>
 37a:	12 c0       	rjmp	.+36     	; 0x3a0 <__fixunssfsi+0x46>
 37c:	b1 30       	cpi	r27, 0x01	; 1
 37e:	81 f0       	breq	.+32     	; 0x3a0 <__fixunssfsi+0x46>
 380:	9f d0       	rcall	.+318    	; 0x4c0 <__fp_zero>
 382:	b1 e0       	ldi	r27, 0x01	; 1
 384:	08 95       	ret
 386:	9c c0       	rjmp	.+312    	; 0x4c0 <__fp_zero>
 388:	67 2f       	mov	r22, r23
 38a:	78 2f       	mov	r23, r24
 38c:	88 27       	eor	r24, r24
 38e:	b8 5f       	subi	r27, 0xF8	; 248
 390:	39 f0       	breq	.+14     	; 0x3a0 <__fixunssfsi+0x46>
 392:	b9 3f       	cpi	r27, 0xF9	; 249
 394:	cc f3       	brlt	.-14     	; 0x388 <__fixunssfsi+0x2e>
 396:	86 95       	lsr	r24
 398:	77 95       	ror	r23
 39a:	67 95       	ror	r22
 39c:	b3 95       	inc	r27
 39e:	d9 f7       	brne	.-10     	; 0x396 <__fixunssfsi+0x3c>
 3a0:	3e f4       	brtc	.+14     	; 0x3b0 <__fixunssfsi+0x56>
 3a2:	90 95       	com	r25
 3a4:	80 95       	com	r24
 3a6:	70 95       	com	r23
 3a8:	61 95       	neg	r22
 3aa:	7f 4f       	sbci	r23, 0xFF	; 255
 3ac:	8f 4f       	sbci	r24, 0xFF	; 255
 3ae:	9f 4f       	sbci	r25, 0xFF	; 255
 3b0:	08 95       	ret

000003b2 <__floatunsisf>:
 3b2:	e8 94       	clt
 3b4:	09 c0       	rjmp	.+18     	; 0x3c8 <__floatsisf+0x12>

000003b6 <__floatsisf>:
 3b6:	97 fb       	bst	r25, 7
 3b8:	3e f4       	brtc	.+14     	; 0x3c8 <__floatsisf+0x12>
 3ba:	90 95       	com	r25
 3bc:	80 95       	com	r24
 3be:	70 95       	com	r23
 3c0:	61 95       	neg	r22
 3c2:	7f 4f       	sbci	r23, 0xFF	; 255
 3c4:	8f 4f       	sbci	r24, 0xFF	; 255
 3c6:	9f 4f       	sbci	r25, 0xFF	; 255
 3c8:	99 23       	and	r25, r25
 3ca:	a9 f0       	breq	.+42     	; 0x3f6 <__floatsisf+0x40>
 3cc:	f9 2f       	mov	r31, r25
 3ce:	96 e9       	ldi	r25, 0x96	; 150
 3d0:	bb 27       	eor	r27, r27
 3d2:	93 95       	inc	r25
 3d4:	f6 95       	lsr	r31
 3d6:	87 95       	ror	r24
 3d8:	77 95       	ror	r23
 3da:	67 95       	ror	r22
 3dc:	b7 95       	ror	r27
 3de:	f1 11       	cpse	r31, r1
 3e0:	f8 cf       	rjmp	.-16     	; 0x3d2 <__floatsisf+0x1c>
 3e2:	fa f4       	brpl	.+62     	; 0x422 <__floatsisf+0x6c>
 3e4:	bb 0f       	add	r27, r27
 3e6:	11 f4       	brne	.+4      	; 0x3ec <__floatsisf+0x36>
 3e8:	60 ff       	sbrs	r22, 0
 3ea:	1b c0       	rjmp	.+54     	; 0x422 <__floatsisf+0x6c>
 3ec:	6f 5f       	subi	r22, 0xFF	; 255
 3ee:	7f 4f       	sbci	r23, 0xFF	; 255
 3f0:	8f 4f       	sbci	r24, 0xFF	; 255
 3f2:	9f 4f       	sbci	r25, 0xFF	; 255
 3f4:	16 c0       	rjmp	.+44     	; 0x422 <__floatsisf+0x6c>
 3f6:	88 23       	and	r24, r24
 3f8:	11 f0       	breq	.+4      	; 0x3fe <__floatsisf+0x48>
 3fa:	96 e9       	ldi	r25, 0x96	; 150
 3fc:	11 c0       	rjmp	.+34     	; 0x420 <__floatsisf+0x6a>
 3fe:	77 23       	and	r23, r23
 400:	21 f0       	breq	.+8      	; 0x40a <__floatsisf+0x54>
 402:	9e e8       	ldi	r25, 0x8E	; 142
 404:	87 2f       	mov	r24, r23
 406:	76 2f       	mov	r23, r22
 408:	05 c0       	rjmp	.+10     	; 0x414 <__floatsisf+0x5e>
 40a:	66 23       	and	r22, r22
 40c:	71 f0       	breq	.+28     	; 0x42a <__floatsisf+0x74>
 40e:	96 e8       	ldi	r25, 0x86	; 134
 410:	86 2f       	mov	r24, r22
 412:	70 e0       	ldi	r23, 0x00	; 0
 414:	60 e0       	ldi	r22, 0x00	; 0
 416:	2a f0       	brmi	.+10     	; 0x422 <__floatsisf+0x6c>
 418:	9a 95       	dec	r25
 41a:	66 0f       	add	r22, r22
 41c:	77 1f       	adc	r23, r23
 41e:	88 1f       	adc	r24, r24
 420:	da f7       	brpl	.-10     	; 0x418 <__floatsisf+0x62>
 422:	88 0f       	add	r24, r24
 424:	96 95       	lsr	r25
 426:	87 95       	ror	r24
 428:	97 f9       	bld	r25, 7
 42a:	08 95       	ret

0000042c <__fp_inf>:
 42c:	97 f9       	bld	r25, 7
 42e:	9f 67       	ori	r25, 0x7F	; 127
 430:	80 e8       	ldi	r24, 0x80	; 128
 432:	70 e0       	ldi	r23, 0x00	; 0
 434:	60 e0       	ldi	r22, 0x00	; 0
 436:	08 95       	ret

00000438 <__fp_nan>:
 438:	9f ef       	ldi	r25, 0xFF	; 255
 43a:	80 ec       	ldi	r24, 0xC0	; 192
 43c:	08 95       	ret

0000043e <__fp_pscA>:
 43e:	00 24       	eor	r0, r0
 440:	0a 94       	dec	r0
 442:	16 16       	cp	r1, r22
 444:	17 06       	cpc	r1, r23
 446:	18 06       	cpc	r1, r24
 448:	09 06       	cpc	r0, r25
 44a:	08 95       	ret

0000044c <__fp_pscB>:
 44c:	00 24       	eor	r0, r0
 44e:	0a 94       	dec	r0
 450:	12 16       	cp	r1, r18
 452:	13 06       	cpc	r1, r19
 454:	14 06       	cpc	r1, r20
 456:	05 06       	cpc	r0, r21
 458:	08 95       	ret

0000045a <__fp_round>:
 45a:	09 2e       	mov	r0, r25
 45c:	03 94       	inc	r0
 45e:	00 0c       	add	r0, r0
 460:	11 f4       	brne	.+4      	; 0x466 <__fp_round+0xc>
 462:	88 23       	and	r24, r24
 464:	52 f0       	brmi	.+20     	; 0x47a <__fp_round+0x20>
 466:	bb 0f       	add	r27, r27
 468:	40 f4       	brcc	.+16     	; 0x47a <__fp_round+0x20>
 46a:	bf 2b       	or	r27, r31
 46c:	11 f4       	brne	.+4      	; 0x472 <__fp_round+0x18>
 46e:	60 ff       	sbrs	r22, 0
 470:	04 c0       	rjmp	.+8      	; 0x47a <__fp_round+0x20>
 472:	6f 5f       	subi	r22, 0xFF	; 255
 474:	7f 4f       	sbci	r23, 0xFF	; 255
 476:	8f 4f       	sbci	r24, 0xFF	; 255
 478:	9f 4f       	sbci	r25, 0xFF	; 255
 47a:	08 95       	ret

0000047c <__fp_split3>:
 47c:	57 fd       	sbrc	r21, 7
 47e:	90 58       	subi	r25, 0x80	; 128
 480:	44 0f       	add	r20, r20
 482:	55 1f       	adc	r21, r21
 484:	59 f0       	breq	.+22     	; 0x49c <__fp_splitA+0x10>
 486:	5f 3f       	cpi	r21, 0xFF	; 255
 488:	71 f0       	breq	.+28     	; 0x4a6 <__fp_splitA+0x1a>
 48a:	47 95       	ror	r20

0000048c <__fp_splitA>:
 48c:	88 0f       	add	r24, r24
 48e:	97 fb       	bst	r25, 7
 490:	99 1f       	adc	r25, r25
 492:	61 f0       	breq	.+24     	; 0x4ac <__fp_splitA+0x20>
 494:	9f 3f       	cpi	r25, 0xFF	; 255
 496:	79 f0       	breq	.+30     	; 0x4b6 <__fp_splitA+0x2a>
 498:	87 95       	ror	r24
 49a:	08 95       	ret
 49c:	12 16       	cp	r1, r18
 49e:	13 06       	cpc	r1, r19
 4a0:	14 06       	cpc	r1, r20
 4a2:	55 1f       	adc	r21, r21
 4a4:	f2 cf       	rjmp	.-28     	; 0x48a <__fp_split3+0xe>
 4a6:	46 95       	lsr	r20
 4a8:	f1 df       	rcall	.-30     	; 0x48c <__fp_splitA>
 4aa:	08 c0       	rjmp	.+16     	; 0x4bc <__fp_splitA+0x30>
 4ac:	16 16       	cp	r1, r22
 4ae:	17 06       	cpc	r1, r23
 4b0:	18 06       	cpc	r1, r24
 4b2:	99 1f       	adc	r25, r25
 4b4:	f1 cf       	rjmp	.-30     	; 0x498 <__fp_splitA+0xc>
 4b6:	86 95       	lsr	r24
 4b8:	71 05       	cpc	r23, r1
 4ba:	61 05       	cpc	r22, r1
 4bc:	08 94       	sec
 4be:	08 95       	ret

000004c0 <__fp_zero>:
 4c0:	e8 94       	clt

000004c2 <__fp_szero>:
 4c2:	bb 27       	eor	r27, r27
 4c4:	66 27       	eor	r22, r22
 4c6:	77 27       	eor	r23, r23
 4c8:	cb 01       	movw	r24, r22
 4ca:	97 f9       	bld	r25, 7
 4cc:	08 95       	ret

000004ce <itoa>:
 4ce:	fb 01       	movw	r30, r22
 4d0:	9f 01       	movw	r18, r30
 4d2:	e8 94       	clt
 4d4:	42 30       	cpi	r20, 0x02	; 2
 4d6:	bc f0       	brlt	.+46     	; 0x506 <itoa+0x38>
 4d8:	45 32       	cpi	r20, 0x25	; 37
 4da:	ac f4       	brge	.+42     	; 0x506 <itoa+0x38>
 4dc:	4a 30       	cpi	r20, 0x0A	; 10
 4de:	29 f4       	brne	.+10     	; 0x4ea <itoa+0x1c>
 4e0:	97 fb       	bst	r25, 7
 4e2:	1e f4       	brtc	.+6      	; 0x4ea <itoa+0x1c>
 4e4:	90 95       	com	r25
 4e6:	81 95       	neg	r24
 4e8:	9f 4f       	sbci	r25, 0xFF	; 255
 4ea:	64 2f       	mov	r22, r20
 4ec:	77 27       	eor	r23, r23
 4ee:	1e d0       	rcall	.+60     	; 0x52c <__udivmodhi4>
 4f0:	80 5d       	subi	r24, 0xD0	; 208
 4f2:	8a 33       	cpi	r24, 0x3A	; 58
 4f4:	0c f0       	brlt	.+2      	; 0x4f8 <itoa+0x2a>
 4f6:	89 5d       	subi	r24, 0xD9	; 217
 4f8:	81 93       	st	Z+, r24
 4fa:	cb 01       	movw	r24, r22
 4fc:	00 97       	sbiw	r24, 0x00	; 0
 4fe:	a9 f7       	brne	.-22     	; 0x4ea <itoa+0x1c>
 500:	16 f4       	brtc	.+4      	; 0x506 <itoa+0x38>
 502:	5d e2       	ldi	r21, 0x2D	; 45
 504:	51 93       	st	Z+, r21
 506:	10 82       	st	Z, r1
 508:	c9 01       	movw	r24, r18
 50a:	00 c0       	rjmp	.+0      	; 0x50c <strrev>

0000050c <strrev>:
 50c:	dc 01       	movw	r26, r24
 50e:	fc 01       	movw	r30, r24
 510:	67 2f       	mov	r22, r23
 512:	71 91       	ld	r23, Z+
 514:	77 23       	and	r23, r23
 516:	e1 f7       	brne	.-8      	; 0x510 <strrev+0x4>
 518:	32 97       	sbiw	r30, 0x02	; 2
 51a:	04 c0       	rjmp	.+8      	; 0x524 <strrev+0x18>
 51c:	7c 91       	ld	r23, X
 51e:	6d 93       	st	X+, r22
 520:	70 83       	st	Z, r23
 522:	62 91       	ld	r22, -Z
 524:	ae 17       	cp	r26, r30
 526:	bf 07       	cpc	r27, r31
 528:	c8 f3       	brcs	.-14     	; 0x51c <strrev+0x10>
 52a:	08 95       	ret

0000052c <__udivmodhi4>:
 52c:	aa 1b       	sub	r26, r26
 52e:	bb 1b       	sub	r27, r27
 530:	51 e1       	ldi	r21, 0x11	; 17
 532:	07 c0       	rjmp	.+14     	; 0x542 <__udivmodhi4_ep>

00000534 <__udivmodhi4_loop>:
 534:	aa 1f       	adc	r26, r26
 536:	bb 1f       	adc	r27, r27
 538:	a6 17       	cp	r26, r22
 53a:	b7 07       	cpc	r27, r23
 53c:	10 f0       	brcs	.+4      	; 0x542 <__udivmodhi4_ep>
 53e:	a6 1b       	sub	r26, r22
 540:	b7 0b       	sbc	r27, r23

00000542 <__udivmodhi4_ep>:
 542:	88 1f       	adc	r24, r24
 544:	99 1f       	adc	r25, r25
 546:	5a 95       	dec	r21
 548:	a9 f7       	brne	.-22     	; 0x534 <__udivmodhi4_loop>
 54a:	80 95       	com	r24
 54c:	90 95       	com	r25
 54e:	bc 01       	movw	r22, r24
 550:	cd 01       	movw	r24, r26
 552:	08 95       	ret

00000554 <_exit>:
 554:	f8 94       	cli

00000556 <__stop_program>:
 556:	ff cf       	rjmp	.-2      	; 0x556 <__stop_program>
